target datalayout = "e-m:e-p270:32:32-p271:32:32-p272:64:64-i64:64-i128:128-f80:128-n8:16:32:64-S128"
target triple = "x86_64-unknown-linux-gnu"

%"class.v8::ReturnValue" = type { ptr }

@_ZZL21postject_has_resourcevE8sentinel = internal global ptr @.str.56, align 8

; Function Attrs: mustprogress nounwind uwtable
define internal noundef zeroext i1 @_ZL21postject_has_resourcev() #4 {
entry:
  %0 = load ptr, ptr @_ZZL21postject_has_resourcevE8sentinel, align 8
  %arrayidx = getelementptr inbounds i8, ptr %0, i64 47
  %1 = load volatile i8, ptr %arrayidx, align 1
  %conv = sext i8 %1 to i32
  %cmp = icmp eq i32 %conv, 49
  ret i1 %cmp
}

; Function Attrs: mustprogress nounwind uwtable
define dso_local noundef zeroext i1 @_ZN4node3sea18IsSingleExecutableEv() #4 {
entry:
  %call = call noundef zeroext i1 @_ZL21postject_has_resourcev()
  ret i1 %call
}

; Function Attrs: mustprogress nounwind uwtable
define dso_local void @_ZN4node3sea5IsSeaERKN2v820FunctionCallbackInfoINS1_5ValueEEE(ptr noundef nonnull align 8 dereferenceable(20) %args) #4 {
entry:
  %isolate.addr.i10 = alloca ptr, align 8
  %index.addr.i11 = alloca i32, align 4
  %addr.i = alloca i64, align 8
  %this.addr.i7 = alloca ptr, align 8
  %isolate.addr.i = alloca ptr, align 8
  %index.addr.i = alloca i32, align 4
  %this.addr.i4 = alloca ptr, align 8
  %slot.addr.i = alloca ptr, align 8
  %this.addr.i2 = alloca ptr, align 8
  %value.addr.i = alloca i8, align 1
  %root_index.i = alloca i32, align 4
  %retval.i = alloca %"class.v8::ReturnValue", align 8
  %this.addr.i = alloca ptr, align 8
  %args.addr = alloca ptr, align 8
  %ref.tmp = alloca %"class.v8::ReturnValue", align 8
  store ptr %args, ptr %args.addr, align 8
  %0 = load ptr, ptr %args.addr, align 8
  store ptr %0, ptr %this.addr.i, align 8
  %this1.i = load ptr, ptr %this.addr.i, align 8
  %1 = load ptr, ptr %this1.i, align 8
  %arrayidx.i = getelementptr inbounds i64, ptr %1, i64 3
  store ptr %retval.i, ptr %this.addr.i4, align 8
  store ptr %arrayidx.i, ptr %slot.addr.i, align 8
  %this1.i5 = load ptr, ptr %this.addr.i4, align 8
  %2 = load ptr, ptr %slot.addr.i, align 8
  store ptr %2, ptr %this1.i5, align 8
  %3 = load ptr, ptr %retval.i, align 8
  %coerce.dive = getelementptr inbounds %"class.v8::ReturnValue", ptr %ref.tmp, i32 0, i32 0
  store ptr %3, ptr %coerce.dive, align 8
  %call1 = call noundef zeroext i1 @_ZN4node3sea18IsSingleExecutableEv()
  store ptr %ref.tmp, ptr %this.addr.i2, align 8
  %frombool.i = zext i1 %call1 to i8
  store i8 %frombool.i, ptr %value.addr.i, align 1
  %this1.i3 = load ptr, ptr %this.addr.i2, align 8
  %4 = load i8, ptr %value.addr.i, align 1
  %tobool.i = trunc i8 %4 to i1
  br i1 %tobool.i, label %if.then.i, label %if.else.i

if.then.i:                                        ; preds = %entry
  store i32 7, ptr %root_index.i, align 4
  br label %_ZN2v811ReturnValueINS_5ValueEE3SetEb.exit

if.else.i:                                        ; preds = %entry
  store i32 8, ptr %root_index.i, align 4
  br label %_ZN2v811ReturnValueINS_5ValueEE3SetEb.exit

_ZN2v811ReturnValueINS_5ValueEE3SetEb.exit:       ; preds = %if.else.i, %if.then.i
  store ptr %this1.i3, ptr %this.addr.i7, align 8
  %this1.i8 = load ptr, ptr %this.addr.i7, align 8
  %5 = load ptr, ptr %this1.i8, align 8
  %arrayidx.i9 = getelementptr inbounds i64, ptr %5, i64 -2
  %6 = load ptr, ptr %arrayidx.i9, align 8
  %7 = load i32, ptr %root_index.i, align 4
  store ptr %6, ptr %isolate.addr.i, align 8
  store i32 %7, ptr %index.addr.i, align 4
  %8 = load ptr, ptr %isolate.addr.i, align 8
  %9 = load i32, ptr %index.addr.i, align 4
  store ptr %8, ptr %isolate.addr.i10, align 8
  store i32 %9, ptr %index.addr.i11, align 4
  %10 = load ptr, ptr %isolate.addr.i10, align 8
  %11 = ptrtoint ptr %10 to i64
  %add.i = add i64 %11, 576
  %12 = load i32, ptr %index.addr.i11, align 4
  %mul.i = mul nsw i32 %12, 8
  %conv.i = sext i32 %mul.i to i64
  %add1.i = add i64 %add.i, %conv.i
  store i64 %add1.i, ptr %addr.i, align 8
  %13 = load i64, ptr %addr.i, align 8
  %14 = inttoptr i64 %13 to ptr
  %15 = load i64, ptr %14, align 8
  %16 = load ptr, ptr %this1.i3, align 8
  store i64 %15, ptr %16, align 8
  ret void
}