; Function Attrs: mustprogress nofree norecurse nounwind willreturn uwtable
define dso_local void @_ZN4node3sea5IsSeaERKN2v820FunctionCallbackInfoINS1_5ValueEEE(ptr nocapture noundef nonnull readonly align 8 dereferenceable(20) %args) #7 {
entry:
  %0 = load ptr, ptr %args, align 8
  %1 = load volatile i8, ptr getelementptr inbounds ([49 x i8], ptr @.str.56, i64 0, i64 47), align 1
  %cmp.i.i = icmp eq i8 %1, 49
  %. = select i1 %cmp.i.i, i64 56, i64 64
  %arrayidx.i = getelementptr inbounds i8, ptr %0, i64 24
  %arrayidx.i9 = getelementptr inbounds i8, ptr %0, i64 8
  %2 = load ptr, ptr %arrayidx.i9, align 8
  %3 = ptrtoint ptr %2 to i64
  %add.i = add i64 %3, 576
  %add1.i = add i64 %add.i, %.
  %4 = inttoptr i64 %add1.i to ptr
  %5 = load i64, ptr %4, align 8
  store i64 %5, ptr %arrayidx.i, align 8
  ret void
}